target datalayout = "e-m:e-p270:32:32-p271:32:32-p272:64:64-i64:64-i128:128-f80:128-n8:16:32:64-S128"
target triple = "x86_64-pc-linux-gnu"

; Function Attrs: inlinehint nounwind uwtable
define internal ptr @DatumGetPointer(i64 noundef %0) #10 {
  %2 = alloca i64, align 8
  store i64 %0, ptr %2, align 8
  %3 = load i64, ptr %2, align 8
  %4 = inttoptr i64 %3 to ptr
  ret ptr %4
}

; Function Attrs: nounwind uwtable
define dso_local ptr @GUCArrayReset(ptr noundef %0) #0 {
  %2 = alloca ptr, align 8
  %3 = alloca ptr, align 8
  %4 = alloca ptr, align 8
  %5 = alloca i32, align 4
  %6 = alloca i32, align 4
  %7 = alloca i32, align 4
  %8 = alloca i64, align 8
  %9 = alloca ptr, align 8
  %10 = alloca ptr, align 8
  %11 = alloca i8, align 1
  store ptr %0, ptr %3, align 8
  call void @llvm.lifetime.start.p0(i64 8, ptr %4) #16
  call void @llvm.lifetime.start.p0(i64 4, ptr %5) #16
  call void @llvm.lifetime.start.p0(i64 4, ptr %6) #16
  %12 = load ptr, ptr %3, align 8
  %13 = icmp ne ptr %12, null
  br i1 %13, label %15, label %14

14:                                               ; preds = %1
  store ptr null, ptr %2, align 8
  store i32 1, ptr %7, align 4
  br label %63

15:                                               ; preds = %1
  %16 = call zeroext i1 @superuser()
  br i1 %16, label %17, label %18

17:                                               ; preds = %15
  store ptr null, ptr %2, align 8
  store i32 1, ptr %7, align 4
  br label %63

18:                                               ; preds = %15
  store ptr null, ptr %4, align 8
  store i32 1, ptr %6, align 4
  store i32 1, ptr %5, align 4
  br label %19

19:                                               ; preds = %58, %18
  %20 = load i32, ptr %5, align 4
  %21 = load ptr, ptr %3, align 8
  %22 = getelementptr inbounds nuw i8, ptr %21, i64 16
  %23 = getelementptr inbounds i32, ptr %22, i64 0
  %24 = load i32, ptr %23, align 4
  %25 = icmp sle i32 %20, %24
  br i1 %25, label %26, label %61

26:                                               ; preds = %19
  call void @llvm.lifetime.start.p0(i64 8, ptr %8) #16
  call void @llvm.lifetime.start.p0(i64 8, ptr %9) #16
  call void @llvm.lifetime.start.p0(i64 8, ptr %10) #16
  call void @llvm.lifetime.start.p0(i64 1, ptr %11) #16
  %27 = load ptr, ptr %3, align 8
  %28 = call i64 @array_ref(ptr noundef %27, i32 noundef 1, ptr noundef %5, i32 noundef -1, i32 noundef -1, i1 noundef zeroext false, i8 noundef signext 105, ptr noundef %11)
  store i64 %28, ptr %8, align 8
  %29 = load i8, ptr %11, align 1, !range !4, !noundef !5
  %30 = trunc i8 %29 to i1
  br i1 %30, label %31, label %32

31:                                               ; preds = %26
  store i32 4, ptr %7, align 4
  br label %55

32:                                               ; preds = %26
  %33 = load i64, ptr %8, align 8
  %34 = call ptr @DatumGetPointer(i64 noundef %33)
  %35 = call ptr @text_to_cstring(ptr noundef %34)
  store ptr %35, ptr %9, align 8
  %36 = load ptr, ptr %9, align 8
  %37 = call ptr @strchr(ptr noundef %36, i32 noundef 61) #17
  store ptr %37, ptr %10, align 8
  %38 = load ptr, ptr %10, align 8
  store i8 0, ptr %38, align 1
  %39 = load ptr, ptr %9, align 8
  %40 = call zeroext i1 @validate_option_array_item(ptr noundef %39, ptr noundef null, i1 noundef zeroext true)
  br i1 %40, label %41, label %42

41:                                               ; preds = %32
  store i32 4, ptr %7, align 4
  br label %55

42:                                               ; preds = %32
  %43 = load ptr, ptr %4, align 8
  %44 = icmp ne ptr %43, null
  br i1 %44, label %45, label %49

45:                                               ; preds = %42
  %46 = load ptr, ptr %4, align 8
  %47 = load i64, ptr %8, align 8
  %48 = call ptr @array_set(ptr noundef %46, i32 noundef 1, ptr noundef %6, i64 noundef %47, i1 noundef zeroext false, i32 noundef -1, i32 noundef -1, i1 noundef zeroext false, i8 noundef signext 105)
  store ptr %48, ptr %4, align 8
  br label %51

49:                                               ; preds = %42
  %50 = call ptr @construct_array_builtin(ptr noundef %8, i32 noundef 1, i32 noundef 25)
  store ptr %50, ptr %4, align 8
  br label %51

51:                                               ; preds = %49, %45
  %52 = load i32, ptr %6, align 4
  %53 = add i32 %52, 1
  store i32 %53, ptr %6, align 4
  %54 = load ptr, ptr %9, align 8
  call void @pfree(ptr noundef %54)
  store i32 0, ptr %7, align 4
  br label %55

55:                                               ; preds = %51, %41, %31
  call void @llvm.lifetime.end.p0(i64 1, ptr %11) #16
  call void @llvm.lifetime.end.p0(i64 8, ptr %10) #16
  call void @llvm.lifetime.end.p0(i64 8, ptr %9) #16
  call void @llvm.lifetime.end.p0(i64 8, ptr %8) #16
  %56 = load i32, ptr %7, align 4
  switch i32 %56, label %65 [
    i32 0, label %57
    i32 4, label %58
  ]

57:                                               ; preds = %55
  br label %58

58:                                               ; preds = %57, %55
  %59 = load i32, ptr %5, align 4
  %60 = add i32 %59, 1
  store i32 %60, ptr %5, align 4
  br label %19, !llvm.loop !69

61:                                               ; preds = %19
  %62 = load ptr, ptr %4, align 8
  store ptr %62, ptr %2, align 8
  store i32 1, ptr %7, align 4
  br label %63

63:                                               ; preds = %61, %17, %14
  call void @llvm.lifetime.end.p0(i64 4, ptr %6) #16
  call void @llvm.lifetime.end.p0(i64 4, ptr %5) #16
  call void @llvm.lifetime.end.p0(i64 8, ptr %4) #16
  %64 = load ptr, ptr %2, align 8
  ret ptr %64

65:                                               ; preds = %55
  unreachable
}