; Function Attrs: nounwind uwtable
define dso_local ptr @GUCArrayReset(ptr noundef %0) local_unnamed_addr #0 {
  %2 = alloca i32, align 4
  %3 = alloca i32, align 4
  %4 = alloca i64, align 8
  %5 = alloca i8, align 1
  call void @llvm.lifetime.start.p0(i64 4, ptr nonnull %2) #29
  call void @llvm.lifetime.start.p0(i64 4, ptr nonnull %3) #29
  %.not = icmp eq ptr %0, null
  br i1 %.not, label %.loopexit, label %6

6:                                                ; preds = %1
  %7 = tail call zeroext i1 @superuser() #29
  br i1 %7, label %.loopexit, label %8

8:                                                ; preds = %6
  store i32 1, ptr %3, align 4
  %9 = getelementptr inbounds nuw i8, ptr %0, i64 16
  store i32 1, ptr %2, align 4
  %10 = load i32, ptr %9, align 4
  %.not1315 = icmp slt i32 %10, 1
  br i1 %.not1315, label %.loopexit, label %.lr.ph

.lr.ph:                                           ; preds = %8, %28
  %.01116 = phi ptr [ %.1, %28 ], [ null, %8 ]
  call void @llvm.lifetime.start.p0(i64 8, ptr nonnull %4) #29
  call void @llvm.lifetime.start.p0(i64 1, ptr nonnull %5) #29
  %11 = call i64 @array_ref(ptr noundef nonnull %0, i32 noundef 1, ptr noundef nonnull %2, i32 noundef -1, i32 noundef -1, i1 noundef zeroext false, i8 noundef signext 105, ptr noundef nonnull %5) #29
  store i64 %11, ptr %4, align 8
  %12 = load i8, ptr %5, align 1, !range !4, !noundef !5
  %13 = trunc nuw i8 %12 to i1
  br i1 %13, label %28, label %14

14:                                               ; preds = %.lr.ph
  %15 = inttoptr i64 %11 to ptr
  %16 = call ptr @text_to_cstring(ptr noundef %15) #29
  %17 = call ptr @strchr(ptr noundef nonnull dereferenceable(1) %16, i32 noundef 61) #30
  store i8 0, ptr %17, align 1
  %18 = call fastcc zeroext i1 @validate_option_array_item(ptr noundef nonnull %16, ptr noundef null, i1 noundef zeroext true)
  br i1 %18, label %28, label %19

19:                                               ; preds = %14
  %.not14 = icmp eq ptr %.01116, null
  br i1 %.not14, label %23, label %20

20:                                               ; preds = %19
  %21 = load i64, ptr %4, align 8
  %22 = call ptr @array_set(ptr noundef nonnull %.01116, i32 noundef 1, ptr noundef nonnull %3, i64 noundef %21, i1 noundef zeroext false, i32 noundef -1, i32 noundef -1, i1 noundef zeroext false, i8 noundef signext 105) #29
  br label %25

23:                                               ; preds = %19
  %24 = call ptr @construct_array_builtin(ptr noundef nonnull %4, i32 noundef 1, i32 noundef 25) #29
  br label %25

25:                                               ; preds = %23, %20
  %.2 = phi ptr [ %22, %20 ], [ %24, %23 ]
  %26 = load i32, ptr %3, align 4
  %27 = add i32 %26, 1
  store i32 %27, ptr %3, align 4
  call void @pfree(ptr noundef nonnull %16) #29
  br label %28

28:                                               ; preds = %14, %.lr.ph, %25
  %.1 = phi ptr [ %.2, %25 ], [ %.01116, %.lr.ph ], [ %.01116, %14 ]
  call void @llvm.lifetime.end.p0(i64 1, ptr nonnull %5) #29
  call void @llvm.lifetime.end.p0(i64 8, ptr nonnull %4) #29
  %29 = load i32, ptr %2, align 4
  %30 = add i32 %29, 1
  store i32 %30, ptr %2, align 4
  %31 = load i32, ptr %9, align 4
  %.not13 = icmp sgt i32 %30, %31
  br i1 %.not13, label %.loopexit, label %.lr.ph, !llvm.loop !65

.loopexit:                                        ; preds = %28, %8, %6, %1
  %.0 = phi ptr [ null, %1 ], [ null, %6 ], [ null, %8 ], [ %.1, %28 ]
  call void @llvm.lifetime.end.p0(i64 4, ptr nonnull %3) #29
  call void @llvm.lifetime.end.p0(i64 4, ptr nonnull %2) #29
  ret ptr %.0
}